
GccApplication1.elf:     file format elf32-avr

Sections:
Idx Name          Size      VMA       LMA       File off  Algn
  0 .data         00000024  00800100  00000602  00000696  2**0
                  CONTENTS, ALLOC, LOAD, DATA
  1 .text         00000602  00000000  00000000  00000094  2**1
                  CONTENTS, ALLOC, LOAD, READONLY, CODE
  2 .bss          00000012  00800124  00800124  000006ba  2**0
                  ALLOC
  3 .comment      00000030  00000000  00000000  000006ba  2**0
                  CONTENTS, READONLY
  4 .note.gnu.avr.deviceinfo 0000003c  00000000  00000000  000006ec  2**2
                  CONTENTS, READONLY
  5 .debug_aranges 00000080  00000000  00000000  00000728  2**0
                  CONTENTS, READONLY, DEBUGGING
  6 .debug_info   00000c62  00000000  00000000  000007a8  2**0
                  CONTENTS, READONLY, DEBUGGING
  7 .debug_abbrev 00000963  00000000  00000000  0000140a  2**0
                  CONTENTS, READONLY, DEBUGGING
  8 .debug_line   00000638  00000000  00000000  00001d6d  2**0
                  CONTENTS, READONLY, DEBUGGING
  9 .debug_frame  0000012c  00000000  00000000  000023a8  2**2
                  CONTENTS, READONLY, DEBUGGING
 10 .debug_str    00000569  00000000  00000000  000024d4  2**0
                  CONTENTS, READONLY, DEBUGGING
 11 .debug_loc    0000021c  00000000  00000000  00002a3d  2**0
                  CONTENTS, READONLY, DEBUGGING
 12 .debug_ranges 00000070  00000000  00000000  00002c59  2**0
                  CONTENTS, READONLY, DEBUGGING

Disassembly of section .text:

00000000 <__vectors>:
   0:	4d c0       	rjmp	.+154    	; 0x9c <__ctors_end>
   2:	00 00       	nop
   4:	68 c0       	rjmp	.+208    	; 0xd6 <__bad_interrupt>
   6:	00 00       	nop
   8:	66 c0       	rjmp	.+204    	; 0xd6 <__bad_interrupt>
   a:	00 00       	nop
   c:	64 c0       	rjmp	.+200    	; 0xd6 <__bad_interrupt>
   e:	00 00       	nop
  10:	62 c0       	rjmp	.+196    	; 0xd6 <__bad_interrupt>
  12:	00 00       	nop
  14:	60 c0       	rjmp	.+192    	; 0xd6 <__bad_interrupt>
  16:	00 00       	nop
  18:	5e c0       	rjmp	.+188    	; 0xd6 <__bad_interrupt>
  1a:	00 00       	nop
  1c:	5c c0       	rjmp	.+184    	; 0xd6 <__bad_interrupt>
  1e:	00 00       	nop
  20:	5a c0       	rjmp	.+180    	; 0xd6 <__bad_interrupt>
  22:	00 00       	nop
  24:	58 c0       	rjmp	.+176    	; 0xd6 <__bad_interrupt>
  26:	00 00       	nop
  28:	56 c0       	rjmp	.+172    	; 0xd6 <__bad_interrupt>
  2a:	00 00       	nop
  2c:	54 c0       	rjmp	.+168    	; 0xd6 <__bad_interrupt>
  2e:	00 00       	nop
  30:	a9 c0       	rjmp	.+338    	; 0x184 <__vector_12>
  32:	00 00       	nop
  34:	50 c0       	rjmp	.+160    	; 0xd6 <__bad_interrupt>
  36:	00 00       	nop
  38:	4e c0       	rjmp	.+156    	; 0xd6 <__bad_interrupt>
  3a:	00 00       	nop
  3c:	4c c0       	rjmp	.+152    	; 0xd6 <__bad_interrupt>
  3e:	00 00       	nop
  40:	4a c0       	rjmp	.+148    	; 0xd6 <__bad_interrupt>
  42:	00 00       	nop
  44:	48 c0       	rjmp	.+144    	; 0xd6 <__bad_interrupt>
  46:	00 00       	nop
  48:	46 c0       	rjmp	.+140    	; 0xd6 <__bad_interrupt>
  4a:	00 00       	nop
  4c:	44 c0       	rjmp	.+136    	; 0xd6 <__bad_interrupt>
  4e:	00 00       	nop
  50:	42 c0       	rjmp	.+132    	; 0xd6 <__bad_interrupt>
  52:	00 00       	nop
  54:	40 c0       	rjmp	.+128    	; 0xd6 <__bad_interrupt>
  56:	00 00       	nop
  58:	3e c0       	rjmp	.+124    	; 0xd6 <__bad_interrupt>
  5a:	00 00       	nop
  5c:	3c c0       	rjmp	.+120    	; 0xd6 <__bad_interrupt>
  5e:	00 00       	nop
  60:	3a c0       	rjmp	.+116    	; 0xd6 <__bad_interrupt>
  62:	00 00       	nop
  64:	38 c0       	rjmp	.+112    	; 0xd6 <__bad_interrupt>
  66:	00 00       	nop
  68:	36 c0       	rjmp	.+108    	; 0xd6 <__bad_interrupt>
  6a:	00 00       	nop
  6c:	34 c0       	rjmp	.+104    	; 0xd6 <__bad_interrupt>
  6e:	00 00       	nop
  70:	32 c0       	rjmp	.+100    	; 0xd6 <__bad_interrupt>
  72:	00 00       	nop
  74:	30 c0       	rjmp	.+96     	; 0xd6 <__bad_interrupt>
  76:	00 00       	nop
  78:	2e c0       	rjmp	.+92     	; 0xd6 <__bad_interrupt>
  7a:	00 00       	nop
  7c:	2c c0       	rjmp	.+88     	; 0xd6 <__bad_interrupt>
  7e:	00 00       	nop
  80:	2a c0       	rjmp	.+84     	; 0xd6 <__bad_interrupt>
  82:	00 00       	nop
  84:	28 c0       	rjmp	.+80     	; 0xd6 <__bad_interrupt>
  86:	00 00       	nop
  88:	26 c0       	rjmp	.+76     	; 0xd6 <__bad_interrupt>
  8a:	00 00       	nop
  8c:	6c 01       	movw	r12, r24
  8e:	95 01       	movw	r18, r10
  90:	a5 01       	movw	r20, r10
  92:	bd 01       	movw	r22, r26
  94:	d5 01       	movw	r26, r10
  96:	ef 01       	movw	r28, r30
  98:	16 02       	muls	r17, r22
  9a:	42 02       	muls	r20, r18

0000009c <__ctors_end>:
  9c:	11 24       	eor	r1, r1
  9e:	1f be       	out	0x3f, r1	; 63
  a0:	cf ef       	ldi	r28, 0xFF	; 255
  a2:	d0 e1       	ldi	r29, 0x10	; 16
  a4:	de bf       	out	0x3e, r29	; 62
  a6:	cd bf       	out	0x3d, r28	; 61

000000a8 <__do_copy_data>:
  a8:	11 e0       	ldi	r17, 0x01	; 1
  aa:	a0 e0       	ldi	r26, 0x00	; 0
  ac:	b1 e0       	ldi	r27, 0x01	; 1
  ae:	e2 e0       	ldi	r30, 0x02	; 2
  b0:	f6 e0       	ldi	r31, 0x06	; 6
  b2:	00 e0       	ldi	r16, 0x00	; 0
  b4:	0b bf       	out	0x3b, r16	; 59
  b6:	02 c0       	rjmp	.+4      	; 0xbc <__do_copy_data+0x14>
  b8:	07 90       	elpm	r0, Z+
  ba:	0d 92       	st	X+, r0
  bc:	a4 32       	cpi	r26, 0x24	; 36
  be:	b1 07       	cpc	r27, r17
  c0:	d9 f7       	brne	.-10     	; 0xb8 <__do_copy_data+0x10>

000000c2 <__do_clear_bss>:
  c2:	21 e0       	ldi	r18, 0x01	; 1
  c4:	a4 e2       	ldi	r26, 0x24	; 36
  c6:	b1 e0       	ldi	r27, 0x01	; 1
  c8:	01 c0       	rjmp	.+2      	; 0xcc <.do_clear_bss_start>

000000ca <.do_clear_bss_loop>:
  ca:	1d 92       	st	X+, r1

000000cc <.do_clear_bss_start>:
  cc:	a6 33       	cpi	r26, 0x36	; 54
  ce:	b2 07       	cpc	r27, r18
  d0:	e1 f7       	brne	.-8      	; 0xca <.do_clear_bss_loop>
  d2:	36 d2       	rcall	.+1132   	; 0x540 <main>
  d4:	94 c2       	rjmp	.+1320   	; 0x5fe <_exit>

000000d6 <__bad_interrupt>:
  d6:	94 cf       	rjmp	.-216    	; 0x0 <__vectors>

000000d8 <adcInit>:

void wait(int ms)
{
	for (int i=0; i<ms; i++)
	_delay_ms(1);
}
  d8:	81 e6       	ldi	r24, 0x61	; 97
  da:	87 b9       	out	0x07, r24	; 7
  dc:	86 e8       	ldi	r24, 0x86	; 134
  de:	86 b9       	out	0x06, r24	; 6
  e0:	08 95       	ret

000000e2 <changeADCChannel>:
  e2:	80 66       	ori	r24, 0x60	; 96
  e4:	87 b9       	out	0x07, r24	; 7
  e6:	08 95       	ret

000000e8 <readADC>:
  e8:	86 b1       	in	r24, 0x06	; 6
  ea:	80 64       	ori	r24, 0x40	; 64
  ec:	86 b9       	out	0x06, r24	; 6
  ee:	36 99       	sbic	0x06, 6	; 6
  f0:	fe cf       	rjmp	.-4      	; 0xee <readADC+0x6>
  f2:	85 b1       	in	r24, 0x05	; 5
  f4:	90 e0       	ldi	r25, 0x00	; 0
  f6:	08 95       	ret

000000f8 <changeWaveform>:

void changeWaveform(){
	wavenum++;
  f8:	80 91 2e 01 	lds	r24, 0x012E	; 0x80012e <wavenum>
  fc:	90 91 2f 01 	lds	r25, 0x012F	; 0x80012f <wavenum+0x1>
 100:	01 96       	adiw	r24, 0x01	; 1
	wavenum = wavenum > NUM_WAVEFORMS - 1? 0 : wavenum;
 102:	88 30       	cpi	r24, 0x08	; 8
 104:	91 05       	cpc	r25, r1
 106:	14 f0       	brlt	.+4      	; 0x10c <changeWaveform+0x14>
 108:	80 e0       	ldi	r24, 0x00	; 0
 10a:	90 e0       	ldi	r25, 0x00	; 0
	wavenum = wavenum < 0? NUM_WAVEFORMS - 1 : wavenum;
 10c:	99 23       	and	r25, r25
 10e:	14 f4       	brge	.+4      	; 0x114 <changeWaveform+0x1c>
 110:	87 e0       	ldi	r24, 0x07	; 7
 112:	90 e0       	ldi	r25, 0x00	; 0
 114:	90 93 2f 01 	sts	0x012F, r25	; 0x80012f <wavenum+0x1>
 118:	80 93 2e 01 	sts	0x012E, r24	; 0x80012e <wavenum>
	waveform = waveforms[wavenum];
 11c:	fc 01       	movw	r30, r24
 11e:	ee 0f       	add	r30, r30
 120:	ff 1f       	adc	r31, r31
 122:	ee 0f       	add	r30, r30
 124:	ff 1f       	adc	r31, r31
 126:	ec 5f       	subi	r30, 0xFC	; 252
 128:	fe 4f       	sbci	r31, 0xFE	; 254
 12a:	40 81       	ld	r20, Z
 12c:	51 81       	ldd	r21, Z+1	; 0x01
 12e:	62 81       	ldd	r22, Z+2	; 0x02
 130:	73 81       	ldd	r23, Z+3	; 0x03
 132:	40 93 32 01 	sts	0x0132, r20	; 0x800132 <waveform>
 136:	50 93 33 01 	sts	0x0133, r21	; 0x800133 <waveform+0x1>
 13a:	60 93 34 01 	sts	0x0134, r22	; 0x800134 <waveform+0x2>
 13e:	70 93 35 01 	sts	0x0135, r23	; 0x800135 <waveform+0x3>
	
	PORTA = wavenum;
 142:	8b bb       	out	0x1b, r24	; 27
 144:	08 95       	ret

00000146 <changelfoWaveform>:
}

void changelfoWaveform(){
	lfowavenum++;
 146:	80 91 29 01 	lds	r24, 0x0129	; 0x800129 <lfowavenum>
 14a:	8f 5f       	subi	r24, 0xFF	; 255
	lfowavenum = lfowavenum > 7? 0 : lfowavenum;
 14c:	88 30       	cpi	r24, 0x08	; 8
 14e:	08 f0       	brcs	.+2      	; 0x152 <changelfoWaveform+0xc>
 150:	80 e0       	ldi	r24, 0x00	; 0
 152:	80 93 29 01 	sts	0x0129, r24	; 0x800129 <lfowavenum>
	lfowavenum = lfowavenum < 0? 7 : lfowavenum;
	
	PORTB = lfowavenum;
 156:	88 bb       	out	0x18, r24	; 24
 158:	08 95       	ret

0000015a <noise>:

// faster noise generator than rand()
uint16_t noise()
{
	static uint16_t lfsr = 0xACE1u;
	lfsr = (lfsr >> 1) ^ (-(lfsr & 1u) & 0xB400u);
 15a:	20 91 00 01 	lds	r18, 0x0100	; 0x800100 <__DATA_REGION_ORIGIN__>
 15e:	30 91 01 01 	lds	r19, 0x0101	; 0x800101 <__DATA_REGION_ORIGIN__+0x1>
 162:	c9 01       	movw	r24, r18
 164:	96 95       	lsr	r25
 166:	87 95       	ror	r24
 168:	21 70       	andi	r18, 0x01	; 1
 16a:	33 27       	eor	r19, r19
 16c:	31 95       	neg	r19
 16e:	21 95       	neg	r18
 170:	31 09       	sbc	r19, r1
 172:	22 27       	eor	r18, r18
 174:	34 7b       	andi	r19, 0xB4	; 180
 176:	82 27       	eor	r24, r18
 178:	93 27       	eor	r25, r19
 17a:	90 93 01 01 	sts	0x0101, r25	; 0x800101 <__DATA_REGION_ORIGIN__+0x1>
 17e:	80 93 00 01 	sts	0x0100, r24	; 0x800100 <__DATA_REGION_ORIGIN__>
	return lfsr;
}
 182:	08 95       	ret

00000184 <__vector_12>:

ISR(TIMER1_COMPA_vect)
{
 184:	1f 92       	push	r1
 186:	0f 92       	push	r0
 188:	0f b6       	in	r0, 0x3f	; 63
 18a:	0f 92       	push	r0
 18c:	11 24       	eor	r1, r1
 18e:	0b b6       	in	r0, 0x3b	; 59
 190:	0f 92       	push	r0
 192:	2f 93       	push	r18
 194:	3f 93       	push	r19
 196:	4f 93       	push	r20
 198:	5f 93       	push	r21
 19a:	6f 93       	push	r22
 19c:	7f 93       	push	r23
 19e:	8f 93       	push	r24
 1a0:	9f 93       	push	r25
 1a2:	af 93       	push	r26
 1a4:	bf 93       	push	r27
 1a6:	ef 93       	push	r30
 1a8:	ff 93       	push	r31
	uint8_t shiftout;
	
	if(wavenum != NUM_WAVEFORMS - 2){
 1aa:	80 91 2e 01 	lds	r24, 0x012E	; 0x80012e <wavenum>
 1ae:	90 91 2f 01 	lds	r25, 0x012F	; 0x80012f <wavenum+0x1>
 1b2:	06 97       	sbiw	r24, 0x06	; 6
 1b4:	b9 f0       	breq	.+46     	; 0x1e4 <__vector_12+0x60>
		// take first bit
		shiftout = waveform & (1<<0);
 1b6:	40 91 32 01 	lds	r20, 0x0132	; 0x800132 <waveform>
 1ba:	50 91 33 01 	lds	r21, 0x0133	; 0x800133 <waveform+0x1>
 1be:	60 91 34 01 	lds	r22, 0x0134	; 0x800134 <waveform+0x2>
 1c2:	70 91 35 01 	lds	r23, 0x0135	; 0x800135 <waveform+0x3>
 1c6:	84 2f       	mov	r24, r20
 1c8:	81 70       	andi	r24, 0x01	; 1
		// move waveform 1 place to the right
		waveform >>= 1;
 1ca:	76 95       	lsr	r23
 1cc:	67 95       	ror	r22
 1ce:	57 95       	ror	r21
 1d0:	47 95       	ror	r20
 1d2:	40 93 32 01 	sts	0x0132, r20	; 0x800132 <waveform>
 1d6:	50 93 33 01 	sts	0x0133, r21	; 0x800133 <waveform+0x1>
 1da:	60 93 34 01 	sts	0x0134, r22	; 0x800134 <waveform+0x2>
 1de:	70 93 35 01 	sts	0x0135, r23	; 0x800135 <waveform+0x3>
 1e2:	02 c0       	rjmp	.+4      	; 0x1e8 <__vector_12+0x64>
	} else {
		shiftout = noise() & 1;
 1e4:	ba df       	rcall	.-140    	; 0x15a <noise>
 1e6:	81 70       	andi	r24, 0x01	; 1
	}
	
	// if we removed a 1 with the bit shift put a 1 to the end of the waveform
	// else do nothing and let it stay 0
	waveform &= ~(0b10000000000000000000000000000000);
 1e8:	40 91 32 01 	lds	r20, 0x0132	; 0x800132 <waveform>
 1ec:	50 91 33 01 	lds	r21, 0x0133	; 0x800133 <waveform+0x1>
 1f0:	60 91 34 01 	lds	r22, 0x0134	; 0x800134 <waveform+0x2>
 1f4:	70 91 35 01 	lds	r23, 0x0135	; 0x800135 <waveform+0x3>
 1f8:	7f 77       	andi	r23, 0x7F	; 127
 1fa:	40 93 32 01 	sts	0x0132, r20	; 0x800132 <waveform>
 1fe:	50 93 33 01 	sts	0x0133, r21	; 0x800133 <waveform+0x1>
 202:	60 93 34 01 	sts	0x0134, r22	; 0x800134 <waveform+0x2>
 206:	70 93 35 01 	sts	0x0135, r23	; 0x800135 <waveform+0x3>
	if(shiftout){
 20a:	88 23       	and	r24, r24
 20c:	49 f0       	breq	.+18     	; 0x220 <__vector_12+0x9c>
		waveform |= 0b10000000000000000000000000000000;
 20e:	70 68       	ori	r23, 0x80	; 128
 210:	40 93 32 01 	sts	0x0132, r20	; 0x800132 <waveform>
 214:	50 93 33 01 	sts	0x0133, r21	; 0x800133 <waveform+0x1>
 218:	60 93 34 01 	sts	0x0134, r22	; 0x800134 <waveform+0x2>
 21c:	70 93 35 01 	sts	0x0135, r23	; 0x800135 <waveform+0x3>
	}

	
	if(shiftout)
 220:	88 23       	and	r24, r24
 222:	21 f0       	breq	.+8      	; 0x22c <__vector_12+0xa8>
		PORTE |= (1 << 2);
 224:	83 b1       	in	r24, 0x03	; 3
 226:	84 60       	ori	r24, 0x04	; 4
 228:	83 b9       	out	0x03, r24	; 3
 22a:	03 c0       	rjmp	.+6      	; 0x232 <__vector_12+0xae>
	else
		PORTE &= ~(1 << 2);	
 22c:	83 b1       	in	r24, 0x03	; 3
 22e:	8b 7f       	andi	r24, 0xFB	; 251
 230:	83 b9       	out	0x03, r24	; 3
}
 232:	ff 91       	pop	r31
 234:	ef 91       	pop	r30
 236:	bf 91       	pop	r27
 238:	af 91       	pop	r26
 23a:	9f 91       	pop	r25
 23c:	8f 91       	pop	r24
 23e:	7f 91       	pop	r23
 240:	6f 91       	pop	r22
 242:	5f 91       	pop	r21
 244:	4f 91       	pop	r20
 246:	3f 91       	pop	r19
 248:	2f 91       	pop	r18
 24a:	0f 90       	pop	r0
 24c:	0b be       	out	0x3b, r0	; 59
 24e:	0f 90       	pop	r0
 250:	0f be       	out	0x3f, r0	; 63
 252:	0f 90       	pop	r0
 254:	1f 90       	pop	r1
 256:	18 95       	reti

00000258 <update_pitch>:

// set new pitch
void update_pitch()
{
	uint16_t newpitch = 200U + ((pitch-lfoval)*4U);
 258:	80 91 02 01 	lds	r24, 0x0102	; 0x800102 <pitch>
 25c:	90 91 03 01 	lds	r25, 0x0103	; 0x800103 <pitch+0x1>
 260:	20 91 26 01 	lds	r18, 0x0126	; 0x800126 <lfoval>
 264:	30 91 27 01 	lds	r19, 0x0127	; 0x800127 <lfoval+0x1>
 268:	82 1b       	sub	r24, r18
 26a:	93 0b       	sbc	r25, r19
 26c:	c2 96       	adiw	r24, 0x32	; 50
 26e:	88 0f       	add	r24, r24
 270:	99 1f       	adc	r25, r25
 272:	88 0f       	add	r24, r24
 274:	99 1f       	adc	r25, r25
	
	if (newpitch != outpitch)
 276:	20 91 30 01 	lds	r18, 0x0130	; 0x800130 <outpitch>
 27a:	30 91 31 01 	lds	r19, 0x0131	; 0x800131 <outpitch+0x1>
 27e:	82 17       	cp	r24, r18
 280:	93 07       	cpc	r25, r19
 282:	89 f0       	breq	.+34     	; 0x2a6 <update_pitch+0x4e>
	{
		outpitch = newpitch;
 284:	90 93 31 01 	sts	0x0131, r25	; 0x800131 <outpitch+0x1>
 288:	80 93 30 01 	sts	0x0130, r24	; 0x800130 <outpitch>
		if (TCNT1 > outpitch)
 28c:	2c b5       	in	r18, 0x2c	; 44
 28e:	3d b5       	in	r19, 0x2d	; 45
 290:	82 17       	cp	r24, r18
 292:	93 07       	cpc	r25, r19
 294:	10 f4       	brcc	.+4      	; 0x29a <update_pitch+0x42>
		TCNT1 = 0;
 296:	1d bc       	out	0x2d, r1	; 45
 298:	1c bc       	out	0x2c, r1	; 44
		OCR1A = outpitch;
 29a:	80 91 30 01 	lds	r24, 0x0130	; 0x800130 <outpitch>
 29e:	90 91 31 01 	lds	r25, 0x0131	; 0x800131 <outpitch+0x1>
 2a2:	9b bd       	out	0x2b, r25	; 43
 2a4:	8a bd       	out	0x2a, r24	; 42
 2a6:	08 95       	ret

000002a8 <setupTimer>:
	}
}

void setupTimer(){
	OCR1A = 500;
 2a8:	84 ef       	ldi	r24, 0xF4	; 244
 2aa:	91 e0       	ldi	r25, 0x01	; 1
 2ac:	9b bd       	out	0x2b, r25	; 43
 2ae:	8a bd       	out	0x2a, r24	; 42
	TIMSK |= (1 << 4);
 2b0:	87 b7       	in	r24, 0x37	; 55
 2b2:	80 61       	ori	r24, 0x10	; 16
 2b4:	87 bf       	out	0x37, r24	; 55
	sei();
 2b6:	78 94       	sei
	TCCR1A = 0b0;
 2b8:	1f bc       	out	0x2f, r1	; 47
	TCCR1B = 0b1010;
 2ba:	8a e0       	ldi	r24, 0x0A	; 10
 2bc:	8e bd       	out	0x2e, r24	; 46
 2be:	08 95       	ret

000002c0 <update_lfo>:
}

void update_lfo()
{
	switch (lfowavenum)
 2c0:	e0 91 29 01 	lds	r30, 0x0129	; 0x800129 <lfowavenum>
 2c4:	8e 2f       	mov	r24, r30
 2c6:	90 e0       	ldi	r25, 0x00	; 0
 2c8:	88 30       	cpi	r24, 0x08	; 8
 2ca:	91 05       	cpc	r25, r1
 2cc:	08 f0       	brcs	.+2      	; 0x2d0 <update_lfo+0x10>
 2ce:	e8 c0       	rjmp	.+464    	; 0x4a0 <__LOCK_REGION_LENGTH__+0xa0>
 2d0:	fc 01       	movw	r30, r24
 2d2:	ea 5b       	subi	r30, 0xBA	; 186
 2d4:	ff 4f       	sbci	r31, 0xFF	; 255
 2d6:	8a c1       	rjmp	.+788    	; 0x5ec <__tablejump2__>
	{
		case 0: // triangle
		lfoval = (lfotimer*lfodelta) >> 8;
 2d8:	80 91 28 01 	lds	r24, 0x0128	; 0x800128 <lfotimer>
 2dc:	90 e0       	ldi	r25, 0x00	; 0
 2de:	40 91 24 01 	lds	r20, 0x0124	; 0x800124 <__data_end>
 2e2:	50 91 25 01 	lds	r21, 0x0125	; 0x800125 <__data_end+0x1>
 2e6:	84 9f       	mul	r24, r20
 2e8:	90 01       	movw	r18, r0
 2ea:	85 9f       	mul	r24, r21
 2ec:	30 0d       	add	r19, r0
 2ee:	94 9f       	mul	r25, r20
 2f0:	30 0d       	add	r19, r0
 2f2:	11 24       	eor	r1, r1
 2f4:	23 2f       	mov	r18, r19
 2f6:	33 27       	eor	r19, r19
 2f8:	30 93 27 01 	sts	0x0127, r19	; 0x800127 <lfoval+0x1>
 2fc:	20 93 26 01 	sts	0x0126, r18	; 0x800126 <lfoval>
		if (lfotimer >= lfofreq/2)
 300:	40 91 2c 01 	lds	r20, 0x012C	; 0x80012c <lfofreq>
 304:	50 91 2d 01 	lds	r21, 0x012D	; 0x80012d <lfofreq+0x1>
 308:	56 95       	lsr	r21
 30a:	47 95       	ror	r20
 30c:	84 17       	cp	r24, r20
 30e:	95 07       	cpc	r25, r21
 310:	08 f4       	brcc	.+2      	; 0x314 <update_lfo+0x54>
 312:	c6 c0       	rjmp	.+396    	; 0x4a0 <__LOCK_REGION_LENGTH__+0xa0>
			lfoval = lfodepth - lfoval;
 314:	80 91 2a 01 	lds	r24, 0x012A	; 0x80012a <lfodepth>
 318:	90 91 2b 01 	lds	r25, 0x012B	; 0x80012b <lfodepth+0x1>
 31c:	82 1b       	sub	r24, r18
 31e:	93 0b       	sbc	r25, r19
 320:	90 93 27 01 	sts	0x0127, r25	; 0x800127 <lfoval+0x1>
 324:	80 93 26 01 	sts	0x0126, r24	; 0x800126 <lfoval>
 328:	bb c0       	rjmp	.+374    	; 0x4a0 <__LOCK_REGION_LENGTH__+0xa0>
		break;
		case 1: // sawtooth up
		lfoval = (lfotimer*lfodelta) >> 8;
 32a:	40 91 28 01 	lds	r20, 0x0128	; 0x800128 <lfotimer>
 32e:	20 91 24 01 	lds	r18, 0x0124	; 0x800124 <__data_end>
 332:	30 91 25 01 	lds	r19, 0x0125	; 0x800125 <__data_end+0x1>
 336:	42 9f       	mul	r20, r18
 338:	c0 01       	movw	r24, r0
 33a:	43 9f       	mul	r20, r19
 33c:	90 0d       	add	r25, r0
 33e:	11 24       	eor	r1, r1
 340:	90 93 26 01 	sts	0x0126, r25	; 0x800126 <lfoval>
 344:	10 92 27 01 	sts	0x0127, r1	; 0x800127 <lfoval+0x1>
		break;
 348:	ab c0       	rjmp	.+342    	; 0x4a0 <__LOCK_REGION_LENGTH__+0xa0>
		case 2: // sawtooth down
		lfoval = lfodepth - ((lfotimer*lfodelta) >> 8);
 34a:	40 91 28 01 	lds	r20, 0x0128	; 0x800128 <lfotimer>
 34e:	80 91 24 01 	lds	r24, 0x0124	; 0x800124 <__data_end>
 352:	90 91 25 01 	lds	r25, 0x0125	; 0x800125 <__data_end+0x1>
 356:	48 9f       	mul	r20, r24
 358:	90 01       	movw	r18, r0
 35a:	49 9f       	mul	r20, r25
 35c:	30 0d       	add	r19, r0
 35e:	11 24       	eor	r1, r1
 360:	23 2f       	mov	r18, r19
 362:	33 27       	eor	r19, r19
 364:	80 91 2a 01 	lds	r24, 0x012A	; 0x80012a <lfodepth>
 368:	90 91 2b 01 	lds	r25, 0x012B	; 0x80012b <lfodepth+0x1>
 36c:	82 1b       	sub	r24, r18
 36e:	93 0b       	sbc	r25, r19
 370:	90 93 27 01 	sts	0x0127, r25	; 0x800127 <lfoval+0x1>
 374:	80 93 26 01 	sts	0x0126, r24	; 0x800126 <lfoval>
		break;
 378:	93 c0       	rjmp	.+294    	; 0x4a0 <__LOCK_REGION_LENGTH__+0xa0>
		case 3: // square
		lfoval = (lfotimer >= lfofreq/2) ? lfodepth : 0;
 37a:	20 91 28 01 	lds	r18, 0x0128	; 0x800128 <lfotimer>
 37e:	30 e0       	ldi	r19, 0x00	; 0
 380:	80 91 2c 01 	lds	r24, 0x012C	; 0x80012c <lfofreq>
 384:	90 91 2d 01 	lds	r25, 0x012D	; 0x80012d <lfofreq+0x1>
 388:	96 95       	lsr	r25
 38a:	87 95       	ror	r24
 38c:	28 17       	cp	r18, r24
 38e:	39 07       	cpc	r19, r25
 390:	28 f0       	brcs	.+10     	; 0x39c <update_lfo+0xdc>
 392:	80 91 2a 01 	lds	r24, 0x012A	; 0x80012a <lfodepth>
 396:	90 91 2b 01 	lds	r25, 0x012B	; 0x80012b <lfodepth+0x1>
 39a:	02 c0       	rjmp	.+4      	; 0x3a0 <update_lfo+0xe0>
 39c:	80 e0       	ldi	r24, 0x00	; 0
 39e:	90 e0       	ldi	r25, 0x00	; 0
 3a0:	90 93 27 01 	sts	0x0127, r25	; 0x800127 <lfoval+0x1>
 3a4:	80 93 26 01 	sts	0x0126, r24	; 0x800126 <lfoval>
		break;
 3a8:	7b c0       	rjmp	.+246    	; 0x4a0 <__LOCK_REGION_LENGTH__+0xa0>
		case 4: // half square
		lfoval = (lfotimer < lfofreq/4) ? lfodepth : 0;
 3aa:	20 91 28 01 	lds	r18, 0x0128	; 0x800128 <lfotimer>
 3ae:	30 e0       	ldi	r19, 0x00	; 0
 3b0:	80 91 2c 01 	lds	r24, 0x012C	; 0x80012c <lfofreq>
 3b4:	90 91 2d 01 	lds	r25, 0x012D	; 0x80012d <lfofreq+0x1>
 3b8:	96 95       	lsr	r25
 3ba:	87 95       	ror	r24
 3bc:	96 95       	lsr	r25
 3be:	87 95       	ror	r24
 3c0:	28 17       	cp	r18, r24
 3c2:	39 07       	cpc	r19, r25
 3c4:	28 f4       	brcc	.+10     	; 0x3d0 <update_lfo+0x110>
 3c6:	80 91 2a 01 	lds	r24, 0x012A	; 0x80012a <lfodepth>
 3ca:	90 91 2b 01 	lds	r25, 0x012B	; 0x80012b <lfodepth+0x1>
 3ce:	02 c0       	rjmp	.+4      	; 0x3d4 <update_lfo+0x114>
 3d0:	80 e0       	ldi	r24, 0x00	; 0
 3d2:	90 e0       	ldi	r25, 0x00	; 0
 3d4:	90 93 27 01 	sts	0x0127, r25	; 0x800127 <lfoval+0x1>
 3d8:	80 93 26 01 	sts	0x0126, r24	; 0x800126 <lfoval>
		break;
 3dc:	61 c0       	rjmp	.+194    	; 0x4a0 <__LOCK_REGION_LENGTH__+0xa0>
		case 5: // half sawtooth up
		if (lfotimer < lfofreq/2)
 3de:	80 91 28 01 	lds	r24, 0x0128	; 0x800128 <lfotimer>
 3e2:	90 e0       	ldi	r25, 0x00	; 0
 3e4:	20 91 2c 01 	lds	r18, 0x012C	; 0x80012c <lfofreq>
 3e8:	30 91 2d 01 	lds	r19, 0x012D	; 0x80012d <lfofreq+0x1>
 3ec:	36 95       	lsr	r19
 3ee:	27 95       	ror	r18
 3f0:	82 17       	cp	r24, r18
 3f2:	93 07       	cpc	r25, r19
 3f4:	b0 f4       	brcc	.+44     	; 0x422 <__LOCK_REGION_LENGTH__+0x22>
			lfoval = (lfotimer*lfodelta) >> 7;
 3f6:	40 91 24 01 	lds	r20, 0x0124	; 0x800124 <__data_end>
 3fa:	50 91 25 01 	lds	r21, 0x0125	; 0x800125 <__data_end+0x1>
 3fe:	84 9f       	mul	r24, r20
 400:	90 01       	movw	r18, r0
 402:	85 9f       	mul	r24, r21
 404:	30 0d       	add	r19, r0
 406:	94 9f       	mul	r25, r20
 408:	30 0d       	add	r19, r0
 40a:	11 24       	eor	r1, r1
 40c:	c9 01       	movw	r24, r18
 40e:	88 0f       	add	r24, r24
 410:	89 2f       	mov	r24, r25
 412:	88 1f       	adc	r24, r24
 414:	99 0b       	sbc	r25, r25
 416:	91 95       	neg	r25
 418:	90 93 27 01 	sts	0x0127, r25	; 0x800127 <lfoval+0x1>
 41c:	80 93 26 01 	sts	0x0126, r24	; 0x800126 <lfoval>
 420:	3f c0       	rjmp	.+126    	; 0x4a0 <__LOCK_REGION_LENGTH__+0xa0>
		else
			lfoval = 0;
 422:	10 92 27 01 	sts	0x0127, r1	; 0x800127 <lfoval+0x1>
 426:	10 92 26 01 	sts	0x0126, r1	; 0x800126 <lfoval>
 42a:	3a c0       	rjmp	.+116    	; 0x4a0 <__LOCK_REGION_LENGTH__+0xa0>
		break;
		case 6: // half sawtooth down
		if (lfotimer < lfofreq/2)
 42c:	80 91 28 01 	lds	r24, 0x0128	; 0x800128 <lfotimer>
 430:	90 e0       	ldi	r25, 0x00	; 0
 432:	20 91 2c 01 	lds	r18, 0x012C	; 0x80012c <lfofreq>
 436:	30 91 2d 01 	lds	r19, 0x012D	; 0x80012d <lfofreq+0x1>
 43a:	36 95       	lsr	r19
 43c:	27 95       	ror	r18
 43e:	82 17       	cp	r24, r18
 440:	93 07       	cpc	r25, r19
 442:	d8 f4       	brcc	.+54     	; 0x47a <__LOCK_REGION_LENGTH__+0x7a>
			lfoval = lfodepth - ((lfotimer*lfodelta) >> 7);
 444:	40 91 24 01 	lds	r20, 0x0124	; 0x800124 <__data_end>
 448:	50 91 25 01 	lds	r21, 0x0125	; 0x800125 <__data_end+0x1>
 44c:	84 9f       	mul	r24, r20
 44e:	90 01       	movw	r18, r0
 450:	85 9f       	mul	r24, r21
 452:	30 0d       	add	r19, r0
 454:	94 9f       	mul	r25, r20
 456:	30 0d       	add	r19, r0
 458:	11 24       	eor	r1, r1
 45a:	22 0f       	add	r18, r18
 45c:	23 2f       	mov	r18, r19
 45e:	22 1f       	adc	r18, r18
 460:	33 0b       	sbc	r19, r19
 462:	31 95       	neg	r19
 464:	80 91 2a 01 	lds	r24, 0x012A	; 0x80012a <lfodepth>
 468:	90 91 2b 01 	lds	r25, 0x012B	; 0x80012b <lfodepth+0x1>
 46c:	82 1b       	sub	r24, r18
 46e:	93 0b       	sbc	r25, r19
 470:	90 93 27 01 	sts	0x0127, r25	; 0x800127 <lfoval+0x1>
 474:	80 93 26 01 	sts	0x0126, r24	; 0x800126 <lfoval>
 478:	13 c0       	rjmp	.+38     	; 0x4a0 <__LOCK_REGION_LENGTH__+0xa0>
		else
		lfoval = 0;
 47a:	10 92 27 01 	sts	0x0127, r1	; 0x800127 <lfoval+0x1>
 47e:	10 92 26 01 	sts	0x0126, r1	; 0x800126 <lfoval>
 482:	0e c0       	rjmp	.+28     	; 0x4a0 <__LOCK_REGION_LENGTH__+0xa0>
		break;
		case 7: // random
		if (lfotimer == 0)
 484:	80 91 28 01 	lds	r24, 0x0128	; 0x800128 <lfotimer>
 488:	81 11       	cpse	r24, r1
			lfoval = noise() % lfodepth;
 48a:	0a c0       	rjmp	.+20     	; 0x4a0 <__LOCK_REGION_LENGTH__+0xa0>
 48c:	66 de       	rcall	.-820    	; 0x15a <noise>
 48e:	60 91 2a 01 	lds	r22, 0x012A	; 0x80012a <lfodepth>
 492:	70 91 2b 01 	lds	r23, 0x012B	; 0x80012b <lfodepth+0x1>
 496:	96 d0       	rcall	.+300    	; 0x5c4 <__udivmodhi4>
 498:	90 93 27 01 	sts	0x0127, r25	; 0x800127 <lfoval+0x1>
 49c:	80 93 26 01 	sts	0x0126, r24	; 0x800126 <lfoval>
		break;
	}

	if (lfotimer < lfofreq/2)
 4a0:	20 91 28 01 	lds	r18, 0x0128	; 0x800128 <lfotimer>
 4a4:	30 e0       	ldi	r19, 0x00	; 0
 4a6:	80 91 2c 01 	lds	r24, 0x012C	; 0x80012c <lfofreq>
 4aa:	90 91 2d 01 	lds	r25, 0x012D	; 0x80012d <lfofreq+0x1>
 4ae:	96 95       	lsr	r25
 4b0:	87 95       	ror	r24
 4b2:	28 17       	cp	r18, r24
 4b4:	39 07       	cpc	r19, r25
 4b6:	20 f4       	brcc	.+8      	; 0x4c0 <__LOCK_REGION_LENGTH__+0xc0>
		PORTD |= 1;
 4b8:	82 b3       	in	r24, 0x12	; 18
 4ba:	81 60       	ori	r24, 0x01	; 1
 4bc:	82 bb       	out	0x12, r24	; 18
 4be:	03 c0       	rjmp	.+6      	; 0x4c6 <__LOCK_REGION_LENGTH__+0xc6>
	else
		PORTD &= ~(1);
 4c0:	82 b3       	in	r24, 0x12	; 18
 4c2:	8e 7f       	andi	r24, 0xFE	; 254
 4c4:	82 bb       	out	0x12, r24	; 18

	lfotimer++;
 4c6:	80 91 28 01 	lds	r24, 0x0128	; 0x800128 <lfotimer>
 4ca:	8f 5f       	subi	r24, 0xFF	; 255
 4cc:	80 93 28 01 	sts	0x0128, r24	; 0x800128 <lfotimer>
	if (lfotimer >= lfofreq)
 4d0:	90 e0       	ldi	r25, 0x00	; 0
 4d2:	20 91 2c 01 	lds	r18, 0x012C	; 0x80012c <lfofreq>
 4d6:	30 91 2d 01 	lds	r19, 0x012D	; 0x80012d <lfofreq+0x1>
 4da:	82 17       	cp	r24, r18
 4dc:	93 07       	cpc	r25, r19
 4de:	10 f0       	brcs	.+4      	; 0x4e4 <__LOCK_REGION_LENGTH__+0xe4>
		lfotimer = 0;
 4e0:	10 92 28 01 	sts	0x0128, r1	; 0x800128 <lfotimer>
 4e4:	08 95       	ret

000004e6 <update_synth_params>:
}

void update_synth_params(){
	changeADCChannel(1);
 4e6:	81 e0       	ldi	r24, 0x01	; 1
 4e8:	90 e0       	ldi	r25, 0x00	; 0
 4ea:	fb dd       	rcall	.-1034   	; 0xe2 <changeADCChannel>
	pitch = readADC();
 4ec:	fd dd       	rcall	.-1030   	; 0xe8 <readADC>
 4ee:	90 93 03 01 	sts	0x0103, r25	; 0x800103 <pitch+0x1>
 4f2:	80 93 02 01 	sts	0x0102, r24	; 0x800102 <pitch>
 4f6:	82 e0       	ldi	r24, 0x02	; 2
	changeADCChannel(2);
 4f8:	90 e0       	ldi	r25, 0x00	; 0
 4fa:	f3 dd       	rcall	.-1050   	; 0xe2 <changeADCChannel>
	lfodepth = readADC() >> 2;
 4fc:	f5 dd       	rcall	.-1046   	; 0xe8 <readADC>
 4fe:	95 95       	asr	r25
 500:	87 95       	ror	r24
 502:	95 95       	asr	r25
 504:	87 95       	ror	r24
 506:	90 93 2b 01 	sts	0x012B, r25	; 0x80012b <lfodepth+0x1>
 50a:	80 93 2a 01 	sts	0x012A, r24	; 0x80012a <lfodepth>
	changeADCChannel(3);
 50e:	83 e0       	ldi	r24, 0x03	; 3
 510:	90 e0       	ldi	r25, 0x00	; 0
 512:	e7 dd       	rcall	.-1074   	; 0xe2 <changeADCChannel>
 514:	e9 dd       	rcall	.-1070   	; 0xe8 <readADC>
	lfofreq = readADC() >> 2;
 516:	bc 01       	movw	r22, r24
 518:	75 95       	asr	r23
 51a:	67 95       	ror	r22
 51c:	75 95       	asr	r23
 51e:	67 95       	ror	r22
 520:	70 93 2d 01 	sts	0x012D, r23	; 0x80012d <lfofreq+0x1>
 524:	60 93 2c 01 	sts	0x012C, r22	; 0x80012c <lfofreq>
 528:	61 15       	cp	r22, r1
 52a:	71 05       	cpc	r23, r1
	lfodelta = (lfofreq) ? (lfodepth*256U) / lfofreq : 0;
 52c:	21 f0       	breq	.+8      	; 0x536 <update_synth_params+0x50>
 52e:	80 e0       	ldi	r24, 0x00	; 0
 530:	90 91 2a 01 	lds	r25, 0x012A	; 0x80012a <lfodepth>
 534:	47 d0       	rcall	.+142    	; 0x5c4 <__udivmodhi4>
 536:	70 93 25 01 	sts	0x0125, r23	; 0x800125 <__data_end+0x1>
 53a:	60 93 24 01 	sts	0x0124, r22	; 0x800124 <__data_end>
 53e:	08 95       	ret

00000540 <main>:
 540:	81 e1       	ldi	r24, 0x11	; 17
 542:	80 93 61 00 	sts	0x0061, r24	; 0x800061 <__TEXT_REGION_LENGTH__+0x7e0061>
}

int main()
{	
	DDRF = 0x111;
	DDRA = 0xFF;
 546:	8f ef       	ldi	r24, 0xFF	; 255
 548:	8a bb       	out	0x1a, r24	; 26
	DDRB = 0xFF;
 54a:	87 bb       	out	0x17, r24	; 23
	DDRD = 0x80;
 54c:	80 e8       	ldi	r24, 0x80	; 128
 54e:	81 bb       	out	0x11, r24	; 17
	DDRE = 0b00000111;
 550:	87 e0       	ldi	r24, 0x07	; 7
 552:	82 b9       	out	0x02, r24	; 2
	DDRG = 0x00;
 554:	10 92 64 00 	sts	0x0064, r1	; 0x800064 <__TEXT_REGION_LENGTH__+0x7e0064>
	adcInit();
 558:	bf dd       	rcall	.-1154   	; 0xd8 <adcInit>
	int pressedE7 = 0;
	int pressedE6 = 0;
	wavenum = 0;
 55a:	10 92 2f 01 	sts	0x012F, r1	; 0x80012f <wavenum+0x1>
 55e:	10 92 2e 01 	sts	0x012E, r1	; 0x80012e <wavenum>
	lfowavenum = 0;
 562:	10 92 29 01 	sts	0x0129, r1	; 0x800129 <lfowavenum>
	waveform = waveforms[wavenum];
 566:	8a ea       	ldi	r24, 0xAA	; 170
 568:	9a ea       	ldi	r25, 0xAA	; 170
 56a:	dc 01       	movw	r26, r24
 56c:	80 93 32 01 	sts	0x0132, r24	; 0x800132 <waveform>
 570:	90 93 33 01 	sts	0x0133, r25	; 0x800133 <waveform+0x1>
 574:	a0 93 34 01 	sts	0x0134, r26	; 0x800134 <waveform+0x2>
 578:	b0 93 35 01 	sts	0x0135, r27	; 0x800135 <waveform+0x3>
	
	setupTimer();
 57c:	95 de       	rcall	.-726    	; 0x2a8 <setupTimer>
	DDRD = 0x80;
	DDRE = 0b00000111;
	DDRG = 0x00;
	adcInit();
	int pressedE7 = 0;
	int pressedE6 = 0;
 57e:	c0 e0       	ldi	r28, 0x00	; 0
 580:	d0 e0       	ldi	r29, 0x00	; 0
	DDRB = 0xFF;
	DDRD = 0x80;
	DDRE = 0b00000111;
	DDRG = 0x00;
	adcInit();
	int pressedE7 = 0;
 582:	00 e0       	ldi	r16, 0x00	; 0
	waveform = waveforms[wavenum];
	
	setupTimer();
	
	while(1){
		update_synth_params();
 584:	10 e0       	ldi	r17, 0x00	; 0
		
		update_pitch();
 586:	af df       	rcall	.-162    	; 0x4e6 <update_synth_params>
 588:	67 de       	rcall	.-818    	; 0x258 <update_pitch>
		update_lfo();
 58a:	9a de       	rcall	.-716    	; 0x2c0 <update_lfo>
 58c:	0f 9b       	sbis	0x01, 7	; 1
		
		if(PINE & 0x80){
 58e:	07 c0       	rjmp	.+14     	; 0x59e <main+0x5e>
			if(pressedE7 == 0){
 590:	01 15       	cp	r16, r1
 592:	11 05       	cpc	r17, r1
 594:	31 f4       	brne	.+12     	; 0x5a2 <main+0x62>
				changeWaveform();
 596:	b0 dd       	rcall	.-1184   	; 0xf8 <changeWaveform>
 598:	01 e0       	ldi	r16, 0x01	; 1
				pressedE7 = 1;
 59a:	10 e0       	ldi	r17, 0x00	; 0
 59c:	02 c0       	rjmp	.+4      	; 0x5a2 <main+0x62>
 59e:	00 e0       	ldi	r16, 0x00	; 0
			}
		} else { 
			pressedE7 = 0;
 5a0:	10 e0       	ldi	r17, 0x00	; 0
		}
		
		if(PINE & 0x40){
 5a2:	0e 9b       	sbis	0x01, 6	; 1
 5a4:	06 c0       	rjmp	.+12     	; 0x5b2 <main+0x72>
			if(pressedE6 == 0){
 5a6:	20 97       	sbiw	r28, 0x00	; 0
 5a8:	31 f4       	brne	.+12     	; 0x5b6 <main+0x76>
				changelfoWaveform();
 5aa:	cd dd       	rcall	.-1126   	; 0x146 <changelfoWaveform>
 5ac:	c1 e0       	ldi	r28, 0x01	; 1
				pressedE6 = 1;
 5ae:	d0 e0       	ldi	r29, 0x00	; 0
 5b0:	02 c0       	rjmp	.+4      	; 0x5b6 <main+0x76>
 5b2:	c0 e0       	ldi	r28, 0x00	; 0
			}
		} else {
			pressedE6 = 0;
 5b4:	d0 e0       	ldi	r29, 0x00	; 0
 5b6:	87 ec       	ldi	r24, 0xC7	; 199
	#else
		//round up by default
		__ticks_dc = (uint32_t)(ceil(fabs(__tmp)));
	#endif

	__builtin_avr_delay_cycles(__ticks_dc);
 5b8:	90 e0       	ldi	r25, 0x00	; 0
 5ba:	01 97       	sbiw	r24, 0x01	; 1
 5bc:	f1 f7       	brne	.-4      	; 0x5ba <main+0x7a>
 5be:	00 c0       	rjmp	.+0      	; 0x5c0 <main+0x80>
 5c0:	00 00       	nop
 5c2:	e1 cf       	rjmp	.-62     	; 0x586 <main+0x46>

000005c4 <__udivmodhi4>:
 5c4:	aa 1b       	sub	r26, r26
 5c6:	bb 1b       	sub	r27, r27
 5c8:	51 e1       	ldi	r21, 0x11	; 17
 5ca:	07 c0       	rjmp	.+14     	; 0x5da <__udivmodhi4_ep>

000005cc <__udivmodhi4_loop>:
 5cc:	aa 1f       	adc	r26, r26
 5ce:	bb 1f       	adc	r27, r27
 5d0:	a6 17       	cp	r26, r22
 5d2:	b7 07       	cpc	r27, r23
 5d4:	10 f0       	brcs	.+4      	; 0x5da <__udivmodhi4_ep>
 5d6:	a6 1b       	sub	r26, r22
 5d8:	b7 0b       	sbc	r27, r23

000005da <__udivmodhi4_ep>:
 5da:	88 1f       	adc	r24, r24
 5dc:	99 1f       	adc	r25, r25
 5de:	5a 95       	dec	r21
 5e0:	a9 f7       	brne	.-22     	; 0x5cc <__udivmodhi4_loop>
 5e2:	80 95       	com	r24
 5e4:	90 95       	com	r25
 5e6:	bc 01       	movw	r22, r24
 5e8:	cd 01       	movw	r24, r26
 5ea:	08 95       	ret

000005ec <__tablejump2__>:
 5ec:	ee 0f       	add	r30, r30
 5ee:	ff 1f       	adc	r31, r31
 5f0:	00 24       	eor	r0, r0
 5f2:	00 1c       	adc	r0, r0
 5f4:	0b be       	out	0x3b, r0	; 59
 5f6:	07 90       	elpm	r0, Z+
 5f8:	f6 91       	elpm	r31, Z
 5fa:	e0 2d       	mov	r30, r0
 5fc:	09 94       	ijmp

000005fe <_exit>:
 5fe:	f8 94       	cli

00000600 <__stop_program>:
 600:	ff cf       	rjmp	.-2      	; 0x600 <__stop_program>
